; Function Attrs: mustprogress nounwind uwtable
define dso_local void @_ZN4node8builtins13BuiltinLoader12RecordResultEPKcNS1_6ResultEPNS_5RealmE(ptr noundef %id, i32 noundef %result, ptr noundef %realm) local_unnamed_addr #3 align 2 {
entry:
  %ref.tmp = alloca %"class.std::__cxx11::basic_string", align 8
  %ref.tmp1 = alloca %"class.std::allocator.3", align 1
  %ref.tmp2 = alloca %"class.std::__cxx11::basic_string", align 8
  %ref.tmp3 = alloca %"class.std::allocator.3", align 1
  %cmp = icmp eq i32 %result, 0
  %cmp.i = icmp eq ptr %id, null
  br i1 %cmp, label %if.then, label %if.else

if.then:                                          ; preds = %entry
  call void @_ZNSaIcEC1Ev(ptr noundef nonnull align 1 dereferenceable(1) %ref.tmp1) #23
  %call.i = call noundef ptr @_ZNSt7__cxx1112basic_stringIcSt11char_traitsIcESaIcEE13_M_local_dataEv(ptr noundef nonnull align 8 dereferenceable(32) %ref.tmp) #23
  call void @_ZNSt7__cxx1112basic_stringIcSt11char_traitsIcESaIcEE12_Alloc_hiderC1EPcRKS3_(ptr noundef nonnull align 8 dereferenceable(8) %ref.tmp, ptr noundef %call.i, ptr noundef nonnull align 1 dereferenceable(1) %ref.tmp1) #23
  br i1 %cmp.i, label %if.then.i, label %if.end

if.then.i:                                        ; preds = %if.then
  call void @_ZSt19__throw_logic_errorPKc(ptr noundef nonnull @.str.69) #25
  unreachable

if.else:                                          ; preds = %entry
  call void @_ZNSaIcEC1Ev(ptr noundef nonnull align 1 dereferenceable(1) %ref.tmp3) #23
  %call.i4 = call noundef ptr @_ZNSt7__cxx1112basic_stringIcSt11char_traitsIcESaIcEE13_M_local_dataEv(ptr noundef nonnull align 8 dereferenceable(32) %ref.tmp2) #23
  call void @_ZNSt7__cxx1112basic_stringIcSt11char_traitsIcESaIcEE12_Alloc_hiderC1EPcRKS3_(ptr noundef nonnull align 8 dereferenceable(8) %ref.tmp2, ptr noundef %call.i4, ptr noundef nonnull align 1 dereferenceable(1) %ref.tmp3) #23
  br i1 %cmp.i, label %if.then.i8, label %if.end

if.then.i8:                                       ; preds = %if.else
  call void @_ZSt19__throw_logic_errorPKc(ptr noundef nonnull @.str.69) #25
  unreachable

if.end:                                           ; preds = %if.else, %if.then
  %.sink = phi i64 [ 56, %if.then ], [ 104, %if.else ]
  %ref.tmp2.sink13 = phi ptr [ %ref.tmp, %if.then ], [ %ref.tmp2, %if.else ]
  %ref.tmp3.sink = phi ptr [ %ref.tmp1, %if.then ], [ %ref.tmp3, %if.else ]
  %builtins_without_cache = getelementptr inbounds i8, ptr %realm, i64 %.sink
  %call.i.i6 = call noundef i64 @strlen(ptr noundef nonnull dereferenceable(1) %id) #23
  %add.ptr.i7 = getelementptr inbounds i8, ptr %id, i64 %call.i.i6
  call void @_ZNSt7__cxx1112basic_stringIcSt11char_traitsIcESaIcEE12_M_constructIPKcEEvT_S8_St20forward_iterator_tag(ptr noundef nonnull align 8 dereferenceable(32) %ref.tmp2.sink13, ptr noundef nonnull %id, ptr noundef nonnull %add.ptr.i7)
  %call.i10 = call { ptr, i8 } @_ZNSt8_Rb_treeINSt7__cxx1112basic_stringIcSt11char_traitsIcESaIcEEES5_St9_IdentityIS5_ESt4lessIS5_ESaIS5_EE16_M_insert_uniqueIS5_EESt4pairISt17_Rb_tree_iteratorIS5_EbEOT_(ptr noundef nonnull align 8 dereferenceable(48) %builtins_without_cache, ptr noundef nonnull align 8 dereferenceable(32) %ref.tmp2.sink13)
  call void @_ZNSt7__cxx1112basic_stringIcSt11char_traitsIcESaIcEED1Ev(ptr noundef nonnull align 8 dereferenceable(32) %ref.tmp2.sink13) #23
  call void @_ZNSaIcED1Ev(ptr noundef nonnull align 1 dereferenceable(1) %ref.tmp3.sink) #23
  ret void
}